GAS LISTING ipl.s 			page 1


   1              	.text
   2              	.code16
   3              	
   4 0000 EB48     	jmp entry
   5 0002 90       	.byte 0x90
   6 0003 48454C4C 	.ascii "HELLOIPL"
   6      4F49504C 
   7 000b 0002     	.word 512
   8 000d 01       	.byte 1
   9 000e 0100     	.word 1
  10 0010 02       	.byte 2
  11 0011 E000     	.word 224
  12 0013 400B     	.word 2880
  13 0015 F0       	.byte 0xf0
  14 0016 0900     	.word 9
  15 0018 1200     	.word 18
  16 001a 0200     	.word 2
  17 001c 00000000 	.int 0
  18 0020 400B0000 	.int 2880
  19 0024 000029   	.byte 0,0,0x29
  20 0027 FFFFFFFF 	.int 0xffffffff
  21 002b 48454C4C 	.ascii "HELLO-OS"
  21      4F2D4F53 
  22 0033 46415431 	.ascii "FAT12"
  22      32
  23 0038 00000000 	.skip 18,0
  23      00000000 
  23      00000000 
  23      00000000 
  23      0000
  24              	
  25              	.set CYLS, 10
  26              	
  27              	entry:
  28              		# init registers
  29 004a B80000   		movw $0, %ax
  30 004d 8ED0     		movw %ax, %ss
  31 004f BC007C   		movw $0x7c00, %sp
  32 0052 8ED8     		movw %ax, %ds
  33              	
  34              		# load disk
  35 0054 B82008   		movw $0x0820, %ax
  36 0057 8EC0     		movw %ax, %es
  37 0059 B500     		movb $0, %ch
  38 005b B600     		movb $0, %dh
  39 005d B102     		movb $2, %cl
  40              	
  41              	readloop:
  42 005f BE0000   		movw $0, %si
  43              	
  44              	retry:
  45 0062 B402     		movb $0x02, %ah
  46 0064 B001     		movb $1, %al
  47 0066 BB0000   		movw $0, %bx
  48 0069 B200     		movb $0x00, %dl
  49 006b CD13     		int $0x13
  50 006d 7310     		jnc next
GAS LISTING ipl.s 			page 2


  51              	
  52 006f 83C601   		add $1, %si
  53 0072 83FE05   		cmp $5, %si
  54 0075 7331     		jae error
  55              		
  56              		# reset drive
  57 0077 B400     		movb $0x00, %ah
  58 0079 B200     		movb $0x00, %dl
  59 007b CD13     		int $0x13
  60              	
  61 007d EBE3     		jmp retry
  62              	
  63              	next:
  64 007f 8CC0     		movw %es, %ax
  65 0081 83C020   		add $0x20, %ax
  66              		
  67 0084 8EC0     		movw %ax, %es
  68 0086 80C101   		add $1,%cl
  69 0089 80F912   		cmp $18, %cl
  70 008c 76D1     		jbe readloop
  71              	
  72 008e B101     		mov $1, %cl
  73 0090 80C601   		add $1, %dh
  74 0093 80FE02   		cmp $2, %dh
  75 0096 72C7     		jb readloop
  76              	
  77 0098 B600     		movb $0, %dh
  78 009a 80C501   		add $1, %ch
  79 009d 80FD0A   		cmp $CYLS, %ch
  80 00a0 72BD     		jb readloop
  81              	
  82 00a2 E90000   		jmp 0xc200
  83              	fin:
  84 00a5 F4       		hlt
  85 00a6 EBFD     		jmp fin
  86              	
  87              	error:
  88 00a8 BE0000   		movw $msg, %si
  89              	
  90              	putloop:
  91 00ab 8A04     		movb (%si), %al
  92 00ad 83C601   		addw $1, %si
  93 00b0 3C00     		cmpb $0, %al
  94 00b2 74F1     		je fin
  95 00b4 B40E     		movb $0x0e, %ah
  96 00b6 BB0F00   		movw $15, %bx
  97 00b9 CD10     		int $0x10
  98 00bb EBEE     		jmp putloop
  99              	
 100              	msg:
 101 00bd 0A6C6F61 		.string "\nload error\n\n"
 101      64206572 
 101      726F720A 
 101      0A00
 102              	
 103 00cb 00000000 	.org 0x01fe
 103      00000000 
GAS LISTING ipl.s 			page 3


 103      00000000 
 103      00000000 
 103      00000000 
 104 01fe 55AA     	.byte 0x55, 0xaa
GAS LISTING ipl.s 			page 4


DEFINED SYMBOLS
               ipl.s:27     .text:000000000000004a entry
               ipl.s:25     *ABS*:000000000000000a CYLS
               ipl.s:41     .text:000000000000005f readloop
               ipl.s:44     .text:0000000000000062 retry
               ipl.s:63     .text:000000000000007f next
               ipl.s:87     .text:00000000000000a8 error
               ipl.s:83     .text:00000000000000a5 fin
               ipl.s:100    .text:00000000000000bd msg
               ipl.s:90     .text:00000000000000ab putloop

NO UNDEFINED SYMBOLS
